target datalayout = "e-m:e-p270:32:32-p271:32:32-p272:64:64-i64:64-i128:128-f80:128-n8:16:32:64-S128"
target triple = "x86_64-unknown-linux-gnu"

%struct.HIDState = type { %union.anon, i32, i32, i32, i32, i8, i8, ptr, ptr, ptr }
%union.anon = type { %struct.HIDMouseState }
%struct.HIDMouseState = type { [16 x %struct.HIDPointerEvent], i32 }
%struct.HIDPointerEvent = type { i32, i32, i32, i32 }

; Function Attrs: nounwind sspstrong uwtable
define internal ptr @timer_new_full(ptr noundef %timer_list_group, i32 noundef %type, i32 noundef %scale, i32 noundef %attributes, ptr noundef %cb, ptr noundef %opaque) #0 {
entry:
  %timer_list_group.addr = alloca ptr, align 8
  %type.addr = alloca i32, align 4
  %scale.addr = alloca i32, align 4
  %attributes.addr = alloca i32, align 4
  %cb.addr = alloca ptr, align 8
  %opaque.addr = alloca ptr, align 8
  %ts = alloca ptr, align 8
  store ptr %timer_list_group, ptr %timer_list_group.addr, align 8
  store i32 %type, ptr %type.addr, align 4
  store i32 %scale, ptr %scale.addr, align 4
  store i32 %attributes, ptr %attributes.addr, align 4
  store ptr %cb, ptr %cb.addr, align 8
  store ptr %opaque, ptr %opaque.addr, align 8
  %call = call noalias ptr @g_malloc0_n(i64 noundef 1, i64 noundef 48) #8
  store ptr %call, ptr %ts, align 8
  %0 = load ptr, ptr %ts, align 8
  %1 = load ptr, ptr %timer_list_group.addr, align 8
  %2 = load i32, ptr %type.addr, align 4
  %3 = load i32, ptr %scale.addr, align 4
  %4 = load i32, ptr %attributes.addr, align 4
  %5 = load ptr, ptr %cb.addr, align 8
  %6 = load ptr, ptr %opaque.addr, align 8
  call void @timer_init_full(ptr noundef %0, ptr noundef %1, i32 noundef %2, i32 noundef %3, i32 noundef %4, ptr noundef %5, ptr noundef %6)
  %7 = load ptr, ptr %ts, align 8
  ret ptr %7
}

; Function Attrs: nounwind sspstrong uwtable
define internal void @timer_free(ptr noundef %ts) #0 {
entry:
  %ts.addr = alloca ptr, align 8
  store ptr %ts, ptr %ts.addr, align 8
  %0 = load ptr, ptr %ts.addr, align 8
  %tobool = icmp ne ptr %0, null
  br i1 %tobool, label %if.then, label %if.end

if.then:                                          ; preds = %entry
  %1 = load ptr, ptr %ts.addr, align 8
  call void @timer_del(ptr noundef %1)
  %2 = load ptr, ptr %ts.addr, align 8
  call void @g_free(ptr noundef %2)
  br label %if.end

if.end:                                           ; preds = %if.then, %entry
  ret void
}

; Function Attrs: nounwind sspstrong uwtable
define internal ptr @timer_new(i32 noundef %type, i32 noundef %scale, ptr noundef %cb, ptr noundef %opaque) #0 {
entry:
  %type.addr = alloca i32, align 4
  %scale.addr = alloca i32, align 4
  %cb.addr = alloca ptr, align 8
  %opaque.addr = alloca ptr, align 8
  store i32 %type, ptr %type.addr, align 4
  store i32 %scale, ptr %scale.addr, align 4
  store ptr %cb, ptr %cb.addr, align 8
  store ptr %opaque, ptr %opaque.addr, align 8
  %0 = load i32, ptr %type.addr, align 4
  %1 = load i32, ptr %scale.addr, align 4
  %2 = load ptr, ptr %cb.addr, align 8
  %3 = load ptr, ptr %opaque.addr, align 8
  %call = call ptr @timer_new_full(ptr noundef null, i32 noundef %0, i32 noundef %1, i32 noundef 0, ptr noundef %2, ptr noundef %3)
  ret ptr %call
}

; Function Attrs: nounwind sspstrong uwtable
define internal void @hid_del_idle_timer(ptr noundef %hs) #0 {
entry:
  %hs.addr = alloca ptr, align 8
  store ptr %hs, ptr %hs.addr, align 8
  %0 = load ptr, ptr %hs.addr, align 8
  %idle_timer = getelementptr inbounds %struct.HIDState, ptr %0, i32 0, i32 7
  %1 = load ptr, ptr %idle_timer, align 8
  %tobool = icmp ne ptr %1, null
  br i1 %tobool, label %if.then, label %if.end

if.then:                                          ; preds = %entry
  %2 = load ptr, ptr %hs.addr, align 8
  %idle_timer1 = getelementptr inbounds %struct.HIDState, ptr %2, i32 0, i32 7
  %3 = load ptr, ptr %idle_timer1, align 8
  call void @timer_free(ptr noundef %3)
  %4 = load ptr, ptr %hs.addr, align 8
  %idle_timer2 = getelementptr inbounds %struct.HIDState, ptr %4, i32 0, i32 7
  store ptr null, ptr %idle_timer2, align 8
  br label %if.end

if.end:                                           ; preds = %if.then, %entry
  ret void
}

; Function Attrs: nounwind sspstrong uwtable
define internal ptr @timer_new_ns(i32 noundef %type, ptr noundef %cb, ptr noundef %opaque) #0 {
entry:
  %type.addr = alloca i32, align 4
  %cb.addr = alloca ptr, align 8
  %opaque.addr = alloca ptr, align 8
  store i32 %type, ptr %type.addr, align 4
  store ptr %cb, ptr %cb.addr, align 8
  store ptr %opaque, ptr %opaque.addr, align 8
  %0 = load i32, ptr %type.addr, align 4
  %1 = load ptr, ptr %cb.addr, align 8
  %2 = load ptr, ptr %opaque.addr, align 8
  %call = call ptr @timer_new(i32 noundef %0, i32 noundef 1, ptr noundef %1, ptr noundef %2)
  ret ptr %call
}

; Function Attrs: nounwind sspstrong uwtable
define dso_local void @hid_set_next_idle(ptr noundef %hs) #0 {
entry:
  %hs.addr = alloca ptr, align 8
  %expire_time = alloca i64, align 8
  store ptr %hs, ptr %hs.addr, align 8
  %0 = load ptr, ptr %hs.addr, align 8
  %idle = getelementptr inbounds %struct.HIDState, ptr %0, i32 0, i32 5
  %1 = load i8, ptr %idle, align 4
  %tobool = icmp ne i8 %1, 0
  br i1 %tobool, label %if.then, label %if.else

if.then:                                          ; preds = %entry
  %call = call i64 @qemu_clock_get_ns(i32 noundef 1)
  %2 = load ptr, ptr %hs.addr, align 8
  %idle1 = getelementptr inbounds %struct.HIDState, ptr %2, i32 0, i32 5
  %3 = load i8, ptr %idle1, align 4
  %conv = zext i8 %3 to i64
  %mul = mul i64 1000000000, %conv
  %mul2 = mul i64 %mul, 4
  %div = sdiv i64 %mul2, 1000
  %add = add i64 %call, %div
  store i64 %add, ptr %expire_time, align 8
  %4 = load ptr, ptr %hs.addr, align 8
  %idle_timer = getelementptr inbounds %struct.HIDState, ptr %4, i32 0, i32 7
  %5 = load ptr, ptr %idle_timer, align 8
  %tobool3 = icmp ne ptr %5, null
  br i1 %tobool3, label %if.end, label %if.then4

if.then4:                                         ; preds = %if.then
  %6 = load ptr, ptr %hs.addr, align 8
  %call5 = call ptr @timer_new_ns(i32 noundef 1, ptr noundef @hid_idle_timer, ptr noundef %6)
  %7 = load ptr, ptr %hs.addr, align 8
  %idle_timer6 = getelementptr inbounds %struct.HIDState, ptr %7, i32 0, i32 7
  store ptr %call5, ptr %idle_timer6, align 8
  br label %if.end

if.end:                                           ; preds = %if.then4, %if.then
  %8 = load ptr, ptr %hs.addr, align 8
  %idle_timer7 = getelementptr inbounds %struct.HIDState, ptr %8, i32 0, i32 7
  %9 = load ptr, ptr %idle_timer7, align 8
  %10 = load i64, ptr %expire_time, align 8
  call void @timer_mod_ns(ptr noundef %9, i64 noundef %10)
  br label %if.end8

if.else:                                          ; preds = %entry
  %11 = load ptr, ptr %hs.addr, align 8
  call void @hid_del_idle_timer(ptr noundef %11)
  br label %if.end8

if.end8:                                          ; preds = %if.else, %if.end
  ret void
}