; Function Attrs: nounwind sspstrong uwtable
define dso_local void @hid_set_next_idle(ptr noundef %hs) local_unnamed_addr #1 {
entry:
  %idle = getelementptr inbounds nuw i8, ptr %hs, i64 276
  %0 = load i8, ptr %idle, align 4
  %tobool.not = icmp eq i8 %0, 0
  br i1 %tobool.not, label %if.else, label %if.then

if.then:                                          ; preds = %entry
  %call = tail call i64 @qemu_clock_get_ns(i32 noundef 1) #11
  %1 = load i8, ptr %idle, align 4
  %conv = zext i8 %1 to i64
  %div = mul nuw nsw i64 %conv, 4000000
  %add = add i64 %div, %call
  %idle_timer = getelementptr inbounds nuw i8, ptr %hs, i64 280
  %2 = load ptr, ptr %idle_timer, align 8
  %tobool3.not = icmp eq ptr %2, null
  br i1 %tobool3.not, label %if.then4, label %if.end

if.then4:                                         ; preds = %if.then
  %call.i.i.i = tail call noalias dereferenceable_or_null(48) ptr @g_malloc0_n(i64 noundef 1, i64 noundef 48) #12
  tail call void @timer_init_full(ptr noundef %call.i.i.i, ptr noundef null, i32 noundef 1, i32 noundef 1, i32 noundef 0, ptr noundef nonnull @hid_idle_timer, ptr noundef nonnull %hs) #11
  store ptr %call.i.i.i, ptr %idle_timer, align 8
  br label %if.end

if.end:                                           ; preds = %if.then4, %if.then
  %3 = phi ptr [ %call.i.i.i, %if.then4 ], [ %2, %if.then ]
  tail call void @timer_mod_ns(ptr noundef %3, i64 noundef %add) #11
  br label %if.end8

if.else:                                          ; preds = %entry
  %idle_timer.i = getelementptr inbounds nuw i8, ptr %hs, i64 280
  %4 = load ptr, ptr %idle_timer.i, align 8
  %tobool.not.i = icmp eq ptr %4, null
  br i1 %tobool.not.i, label %if.end8, label %if.then.i

if.then.i:                                        ; preds = %if.else
  tail call void @timer_del(ptr noundef nonnull %4) #11
  tail call void @g_free(ptr noundef nonnull %4) #11
  store ptr null, ptr %idle_timer.i, align 8
  br label %if.end8

if.end8:                                          ; preds = %if.then.i, %if.else, %if.end
  ret void
}